target datalayout = "e-m:e-p270:32:32-p271:32:32-p272:64:64-i64:64-i128:128-f80:128-n8:16:32:64-S128"
target triple = "x86_64-pc-linux-gnu"

%"class.std::basic_ios" = type { %"class.std::ios_base", ptr, i8, i8, ptr, ptr, ptr, ptr }
%"class.std::ios_base" = type { ptr, i64, i64, i32, i32, i32, ptr, %"struct.std::ios_base::_Words", [8 x %"struct.std::ios_base::_Words"], i32, ptr, %"class.std::locale" }
%"struct.std::ios_base::_Words" = type { ptr, i64 }
%"class.std::locale" = type { ptr }
%"class.std::__cxx11::basic_string" = type { %"struct.std::__cxx11::basic_string<char>::_Alloc_hider", i64, %union.anon }
%"struct.std::__cxx11::basic_string<char>::_Alloc_hider" = type { ptr }
%union.anon = type { i64, [8 x i8] }
%"class.opencc::Optional" = type { i8, %"class.std::__cxx11::basic_string" }
%"class.std::__shared_count" = type { ptr }
%"class.std::basic_istream" = type { ptr, i64, %"class.std::basic_ios" }
%"class.std::__shared_ptr" = type { ptr, %"class.std::__shared_count" }

@_Z14outputFileNameB5cxx11 = dso_local global %"class.opencc::Optional" zeroinitializer, align 8
@noFlush = dso_local global i8 0, align 1
@converter = dso_local global { ptr, %"class.std::__shared_count" } zeroinitializer, align 8
@stdout = external global ptr, align 8
@.str.10 = private unnamed_addr constant [2 x i8] c"w\00", align 1
@_ZTIN6opencc15FileNotWritableE = linkonce_odr dso_local constant { ptr, ptr, ptr } { ptr getelementptr inbounds (ptr, ptr @_ZTVN10__cxxabiv120__si_class_type_infoE, i64 2), ptr @_ZTSN6opencc15FileNotWritableE, ptr @_ZTIN6opencc9ExceptionE }, comdat, align 8
@_ZSt3cin = external global %"class.std::basic_istream", align 8
@.str.11 = private unnamed_addr constant [2 x i8] c"\0A\00", align 1

; Function Attrs: mustprogress nounwind uwtable
define linkonce_odr dso_local noundef ptr @_ZNKSt12__shared_ptrIN6opencc9ConverterELN9__gnu_cxx12_Lock_policyE2EE3getEv(ptr noundef nonnull align 8 dereferenceable(16) %0) #4 comdat align 2 {
  %2 = alloca ptr, align 8
  store ptr %0, ptr %2, align 8
  %3 = load ptr, ptr %2, align 8
  %4 = getelementptr inbounds %"class.std::__shared_ptr", ptr %3, i32 0, i32 0
  %5 = load ptr, ptr %4, align 8
  ret ptr %5
}

; Function Attrs: mustprogress nounwind uwtable
define linkonce_odr dso_local noundef ptr @_ZNKSt19__shared_ptr_accessIN6opencc9ConverterELN9__gnu_cxx12_Lock_policyE2ELb0ELb0EE6_M_getEv(ptr noundef nonnull align 1 dereferenceable(1) %0) #4 comdat align 2 {
  %2 = alloca ptr, align 8
  store ptr %0, ptr %2, align 8
  %3 = load ptr, ptr %2, align 8
  %4 = call noundef ptr @_ZNKSt12__shared_ptrIN6opencc9ConverterELN9__gnu_cxx12_Lock_policyE2EE3getEv(ptr noundef nonnull align 8 dereferenceable(16) %3) #3
  ret ptr %4
}

; Function Attrs: mustprogress nounwind uwtable
define linkonce_odr dso_local noundef nonnull align 8 dereferenceable(32) ptr @_ZNK6opencc8OptionalINSt7__cxx1112basic_stringIcSt11char_traitsIcESaIcEEEE3GetEv(ptr noundef nonnull align 8 dereferenceable(40) %0) #4 comdat align 2 {
  %2 = alloca ptr, align 8
  store ptr %0, ptr %2, align 8
  %3 = load ptr, ptr %2, align 8
  %4 = getelementptr inbounds %"class.opencc::Optional", ptr %3, i32 0, i32 1
  ret ptr %4
}

; Function Attrs: mustprogress nounwind uwtable
define linkonce_odr dso_local noundef zeroext i1 @_ZNK6opencc8OptionalINSt7__cxx1112basic_stringIcSt11char_traitsIcESaIcEEEE6IsNullEv(ptr noundef nonnull align 8 dereferenceable(40) %0) #4 comdat align 2 {
  %2 = alloca ptr, align 8
  store ptr %0, ptr %2, align 8
  %3 = load ptr, ptr %2, align 8
  %4 = getelementptr inbounds %"class.opencc::Optional", ptr %3, i32 0, i32 0
  %5 = load i8, ptr %4, align 8
  %6 = trunc i8 %5 to i1
  ret i1 %6
}

; Function Attrs: mustprogress nounwind uwtable
define linkonce_odr dso_local noundef ptr @_ZNKSt19__shared_ptr_accessIN6opencc9ConverterELN9__gnu_cxx12_Lock_policyE2ELb0ELb0EEptEv(ptr noundef nonnull align 1 dereferenceable(1) %0) #4 comdat align 2 {
  %2 = alloca ptr, align 8
  store ptr %0, ptr %2, align 8
  %3 = load ptr, ptr %2, align 8
  %4 = call noundef ptr @_ZNKSt19__shared_ptr_accessIN6opencc9ConverterELN9__gnu_cxx12_Lock_policyE2ELb0ELb0EE6_M_getEv(ptr noundef nonnull align 1 dereferenceable(1) %3) #3
  ret ptr %4
}

; Function Attrs: mustprogress uwtable
define dso_local noundef ptr @_Z15GetOutputStreamv() #6 personality ptr @__gxx_personality_v0 {
  %1 = alloca ptr, align 8
  %2 = alloca ptr, align 8
  %3 = alloca ptr, align 8
  %4 = alloca i32, align 4
  %5 = call noundef zeroext i1 @_ZNK6opencc8OptionalINSt7__cxx1112basic_stringIcSt11char_traitsIcESaIcEEEE6IsNullEv(ptr noundef nonnull align 8 dereferenceable(40) @_Z14outputFileNameB5cxx11)
  br i1 %5, label %6, label %8

6:                                                ; preds = %0
  %7 = load ptr, ptr @stdout, align 8
  store ptr %7, ptr %1, align 8
  br label %25

8:                                                ; preds = %0
  %9 = call noundef nonnull align 8 dereferenceable(32) ptr @_ZNK6opencc8OptionalINSt7__cxx1112basic_stringIcSt11char_traitsIcESaIcEEEE3GetEv(ptr noundef nonnull align 8 dereferenceable(40) @_Z14outputFileNameB5cxx11)
  %10 = call noundef ptr @_ZNKSt7__cxx1112basic_stringIcSt11char_traitsIcESaIcEE5c_strEv(ptr noundef nonnull align 8 dereferenceable(32) %9) #3
  %11 = call noalias ptr @fopen(ptr noundef %10, ptr noundef @.str.10)
  store ptr %11, ptr %2, align 8
  %12 = load ptr, ptr %2, align 8
  %13 = icmp ne ptr %12, null
  br i1 %13, label %23, label %14

14:                                               ; preds = %8
  %15 = call ptr @__cxa_allocate_exception(i64 40) #3
  %16 = invoke noundef nonnull align 8 dereferenceable(32) ptr @_ZNK6opencc8OptionalINSt7__cxx1112basic_stringIcSt11char_traitsIcESaIcEEEE3GetEv(ptr noundef nonnull align 8 dereferenceable(40) @_Z14outputFileNameB5cxx11)
          to label %17 unwind label %19

17:                                               ; preds = %14
  invoke void @_ZN6opencc15FileNotWritableC2ERKNSt7__cxx1112basic_stringIcSt11char_traitsIcESaIcEEE(ptr noundef nonnull align 8 dereferenceable(40) %15, ptr noundef nonnull align 8 dereferenceable(32) %16)
          to label %18 unwind label %19

18:                                               ; preds = %17
  call void @__cxa_throw(ptr %15, ptr @_ZTIN6opencc15FileNotWritableE, ptr @_ZN6opencc15FileNotWritableD2Ev) #17
  unreachable

19:                                               ; preds = %17, %14
  %20 = landingpad { ptr, i32 }
          cleanup
  %21 = extractvalue { ptr, i32 } %20, 0
  store ptr %21, ptr %3, align 8
  %22 = extractvalue { ptr, i32 } %20, 1
  store i32 %22, ptr %4, align 4
  call void @__cxa_free_exception(ptr %15) #3
  br label %27

23:                                               ; preds = %8
  %24 = load ptr, ptr %2, align 8
  store ptr %24, ptr %1, align 8
  br label %25

25:                                               ; preds = %23, %6
  %26 = load ptr, ptr %1, align 8
  ret ptr %26

27:                                               ; preds = %19
  %28 = load ptr, ptr %3, align 8
  %29 = load i32, ptr %4, align 4
  %30 = insertvalue { ptr, i32 } poison, ptr %28, 0
  %31 = insertvalue { ptr, i32 } %30, i32 %29, 1
  resume { ptr, i32 } %31
}

; Function Attrs: mustprogress uwtable
define dso_local void @_Z17ConvertLineByLinev() #6 personality ptr @__gxx_personality_v0 {
  %1 = alloca ptr, align 8
  %2 = alloca ptr, align 8
  %3 = alloca i8, align 1
  %4 = alloca %"class.std::__cxx11::basic_string", align 8
  %5 = alloca ptr, align 8
  %6 = alloca i32, align 4
  %7 = alloca ptr, align 8
  %8 = alloca %"class.std::__cxx11::basic_string", align 8
  store ptr @_ZSt3cin, ptr %1, align 8
  %9 = call noundef ptr @_Z15GetOutputStreamv()
  store ptr %9, ptr %2, align 8
  store i8 1, ptr %3, align 1
  br label %10

10:                                               ; preds = %48, %0
  %11 = load ptr, ptr @_ZSt3cin, align 8
  %12 = getelementptr i8, ptr %11, i64 -24
  %13 = load i64, ptr %12, align 8
  %14 = getelementptr inbounds i8, ptr @_ZSt3cin, i64 %13
  %15 = call noundef zeroext i1 @_ZNKSt9basic_iosIcSt11char_traitsIcEE3eofEv(ptr noundef nonnull align 8 dereferenceable(264) %14)
  %16 = xor i1 %15, true
  br i1 %16, label %17, label %50

17:                                               ; preds = %10
  %18 = load i8, ptr %3, align 1
  %19 = trunc i8 %18 to i1
  br i1 %19, label %23, label %20

20:                                               ; preds = %17
  %21 = load ptr, ptr %2, align 8
  %22 = call i32 @fputs(ptr noundef @.str.11, ptr noundef %21)
  br label %24

23:                                               ; preds = %17
  store i8 0, ptr %3, align 1
  br label %24

24:                                               ; preds = %23, %20
  call void @_ZNSt7__cxx1112basic_stringIcSt11char_traitsIcESaIcEEC1Ev(ptr noundef nonnull align 8 dereferenceable(32) %4) #3
  %25 = invoke noundef nonnull align 8 dereferenceable(16) ptr @_ZSt7getlineIcSt11char_traitsIcESaIcEERSt13basic_istreamIT_T0_ES7_RNSt7__cxx1112basic_stringIS4_S5_T1_EE(ptr noundef nonnull align 8 dereferenceable(16) @_ZSt3cin, ptr noundef nonnull align 8 dereferenceable(32) %4)
          to label %26 unwind label %40

26:                                               ; preds = %24
  %27 = call noundef ptr @_ZNKSt19__shared_ptr_accessIN6opencc9ConverterELN9__gnu_cxx12_Lock_policyE2ELb0ELb0EEptEv(ptr noundef nonnull align 1 dereferenceable(1) @converter) #3
  invoke void @_ZNK6opencc9Converter7ConvertERKNSt7__cxx1112basic_stringIcSt11char_traitsIcESaIcEEE(ptr dead_on_unwind writable sret(%"class.std::__cxx11::basic_string") align 8 %8, ptr noundef nonnull align 8 dereferenceable(64) %27, ptr noundef nonnull align 8 dereferenceable(32) %4)
          to label %28 unwind label %40

28:                                               ; preds = %26
  store ptr %8, ptr %7, align 8
  %29 = load ptr, ptr %7, align 8
  %30 = call noundef ptr @_ZNKSt7__cxx1112basic_stringIcSt11char_traitsIcESaIcEE5c_strEv(ptr noundef nonnull align 8 dereferenceable(32) %29) #3
  %31 = load ptr, ptr %2, align 8
  %32 = invoke i32 @fputs(ptr noundef %30, ptr noundef %31)
          to label %33 unwind label %44

33:                                               ; preds = %28
  %34 = load i8, ptr @noFlush, align 1
  %35 = trunc i8 %34 to i1
  br i1 %35, label %48, label %36

36:                                               ; preds = %33
  %37 = load ptr, ptr %2, align 8
  %38 = invoke i32 @fflush(ptr noundef %37)
          to label %39 unwind label %44

39:                                               ; preds = %36
  br label %48

40:                                               ; preds = %26, %24
  %41 = landingpad { ptr, i32 }
          cleanup
  %42 = extractvalue { ptr, i32 } %41, 0
  store ptr %42, ptr %5, align 8
  %43 = extractvalue { ptr, i32 } %41, 1
  store i32 %43, ptr %6, align 4
  br label %49

44:                                               ; preds = %36, %28
  %45 = landingpad { ptr, i32 }
          cleanup
  %46 = extractvalue { ptr, i32 } %45, 0
  store ptr %46, ptr %5, align 8
  %47 = extractvalue { ptr, i32 } %45, 1
  store i32 %47, ptr %6, align 4
  call void @_ZNSt7__cxx1112basic_stringIcSt11char_traitsIcESaIcEED1Ev(ptr noundef nonnull align 8 dereferenceable(32) %8) #3
  br label %49

48:                                               ; preds = %39, %33
  call void @_ZNSt7__cxx1112basic_stringIcSt11char_traitsIcESaIcEED1Ev(ptr noundef nonnull align 8 dereferenceable(32) %8) #3
  call void @_ZNSt7__cxx1112basic_stringIcSt11char_traitsIcESaIcEED1Ev(ptr noundef nonnull align 8 dereferenceable(32) %4) #3
  br label %10, !llvm.loop !15

49:                                               ; preds = %44, %40
  call void @_ZNSt7__cxx1112basic_stringIcSt11char_traitsIcESaIcEED1Ev(ptr noundef nonnull align 8 dereferenceable(32) %4) #3
  br label %53

50:                                               ; preds = %10
  %51 = load ptr, ptr %2, align 8
  %52 = call i32 @fclose(ptr noundef %51)
  ret void

53:                                               ; preds = %49
  %54 = load ptr, ptr %5, align 8
  %55 = load i32, ptr %6, align 4
  %56 = insertvalue { ptr, i32 } poison, ptr %54, 0
  %57 = insertvalue { ptr, i32 } %56, i32 %55, 1
  resume { ptr, i32 } %57
}