; Function Attrs: mustprogress uwtable
define dso_local void @_Z17ConvertLineByLinev() local_unnamed_addr #5 personality ptr @__gxx_personality_v0 {
  %1 = alloca %"class.std::__cxx11::basic_string", align 8
  %2 = alloca %"class.std::__cxx11::basic_string", align 8
  %3 = load i8, ptr @_Z14outputFileNameB5cxx11, align 8
  %4 = trunc i8 %3 to i1
  br i1 %4, label %5, label %7

5:                                                ; preds = %0
  %6 = load ptr, ptr @stdout, align 8
  br label %_Z15GetOutputStreamv.exit

7:                                                ; preds = %0
  %8 = tail call noundef ptr @_ZNKSt7__cxx1112basic_stringIcSt11char_traitsIcESaIcEE5c_strEv(ptr noundef nonnull align 8 dereferenceable(32) getelementptr inbounds (%"class.opencc::Optional", ptr @_Z14outputFileNameB5cxx11, i64 0, i32 1, i32 0, i32 0)) #25
  %9 = tail call noalias ptr @fopen(ptr noundef %8, ptr noundef nonnull @.str.10)
  %.not.i = icmp eq ptr %9, null
  br i1 %.not.i, label %10, label %_Z15GetOutputStreamv.exit

10:                                               ; preds = %7
  %11 = tail call ptr @__cxa_allocate_exception(i64 40) #25
  invoke void @_ZN6opencc15FileNotWritableC2ERKNSt7__cxx1112basic_stringIcSt11char_traitsIcESaIcEEE(ptr noundef nonnull align 8 dereferenceable(40) %11, ptr noundef nonnull align 8 dereferenceable(32) getelementptr inbounds (%"class.opencc::Optional", ptr @_Z14outputFileNameB5cxx11, i64 0, i32 1, i32 0, i32 0))
          to label %12 unwind label %13

12:                                               ; preds = %10
  tail call void @__cxa_throw(ptr nonnull %11, ptr nonnull @_ZTIN6opencc15FileNotWritableE, ptr nonnull @_ZN6opencc15FileNotWritableD2Ev) #26
  unreachable

common.resume:                                    ; preds = %30, %13
  %common.resume.op = phi { ptr, i32 } [ %14, %13 ], [ %31, %30 ]
  resume { ptr, i32 } %common.resume.op

13:                                               ; preds = %10
  %14 = landingpad { ptr, i32 }
          cleanup
  tail call void @__cxa_free_exception(ptr %11) #25
  br label %common.resume

_Z15GetOutputStreamv.exit:                        ; preds = %5, %7
  %.0.i = phi ptr [ %6, %5 ], [ %9, %7 ]
  %15 = load ptr, ptr @_ZSt3cin, align 8
  %16 = getelementptr i8, ptr %15, i64 -24
  %17 = load i64, ptr %16, align 8
  %18 = getelementptr inbounds i8, ptr @_ZSt3cin, i64 %17
  %19 = tail call noundef zeroext i1 @_ZNKSt9basic_iosIcSt11char_traitsIcEE3eofEv(ptr noundef nonnull align 8 dereferenceable(264) %18)
  br i1 %19, label %._crit_edge, label %.lr.ph

.critedge:                                        ; preds = %32
  %fputc = call i32 @fputc(i32 10, ptr %.0.i)
  br label %.lr.ph

.lr.ph:                                           ; preds = %_Z15GetOutputStreamv.exit, %.critedge
  call void @_ZNSt7__cxx1112basic_stringIcSt11char_traitsIcESaIcEEC1Ev(ptr noundef nonnull align 8 dereferenceable(32) %1) #25
  %20 = invoke noundef nonnull align 8 dereferenceable(16) ptr @_ZSt7getlineIcSt11char_traitsIcESaIcEERSt13basic_istreamIT_T0_ES7_RNSt7__cxx1112basic_stringIS4_S5_T1_EE(ptr noundef nonnull align 8 dereferenceable(16) @_ZSt3cin, ptr noundef nonnull align 8 dereferenceable(32) %1)
          to label %21 unwind label %30

21:                                               ; preds = %.lr.ph
  %22 = load ptr, ptr @converter, align 8
  invoke void @_ZNK6opencc9Converter7ConvertERKNSt7__cxx1112basic_stringIcSt11char_traitsIcESaIcEEE(ptr dead_on_unwind nonnull writable sret(%"class.std::__cxx11::basic_string") align 8 %2, ptr noundef nonnull align 8 dereferenceable(64) %22, ptr noundef nonnull align 8 dereferenceable(32) %1)
          to label %23 unwind label %30

23:                                               ; preds = %21
  %24 = call noundef ptr @_ZNKSt7__cxx1112basic_stringIcSt11char_traitsIcESaIcEE5c_strEv(ptr noundef nonnull align 8 dereferenceable(32) %2) #25
  %25 = call i32 @fputs(ptr noundef %24, ptr noundef %.0.i)
  %26 = load i8, ptr @noFlush, align 1
  %27 = trunc i8 %26 to i1
  br i1 %27, label %32, label %28

28:                                               ; preds = %23
  %29 = call i32 @fflush(ptr noundef %.0.i)
  br label %32

30:                                               ; preds = %21, %.lr.ph
  %31 = landingpad { ptr, i32 }
          cleanup
  call void @_ZNSt7__cxx1112basic_stringIcSt11char_traitsIcESaIcEED1Ev(ptr noundef nonnull align 8 dereferenceable(32) %1) #25
  br label %common.resume

32:                                               ; preds = %28, %23
  call void @_ZNSt7__cxx1112basic_stringIcSt11char_traitsIcESaIcEED1Ev(ptr noundef nonnull align 8 dereferenceable(32) %2) #25
  call void @_ZNSt7__cxx1112basic_stringIcSt11char_traitsIcESaIcEED1Ev(ptr noundef nonnull align 8 dereferenceable(32) %1) #25
  %33 = load ptr, ptr @_ZSt3cin, align 8
  %34 = getelementptr i8, ptr %33, i64 -24
  %35 = load i64, ptr %34, align 8
  %36 = getelementptr inbounds i8, ptr @_ZSt3cin, i64 %35
  %37 = call noundef zeroext i1 @_ZNKSt9basic_iosIcSt11char_traitsIcEE3eofEv(ptr noundef nonnull align 8 dereferenceable(264) %36)
  br i1 %37, label %._crit_edge, label %.critedge, !llvm.loop !49

._crit_edge:                                      ; preds = %32, %_Z15GetOutputStreamv.exit
  %38 = call i32 @fclose(ptr noundef %.0.i)
  ret void
}